; Function Attrs: nounwind uwtable
define dso_local { ptr, ptr } @gen_object_matcher(ptr %0, ptr %1, ptr %2, ptr %3) local_unnamed_addr #1 {
  %5 = tail call ptr @jv_mem_alloc(i64 noundef 160) #17
  %6 = getelementptr inbounds nuw i8, ptr %5, i64 16
  tail call void @llvm.memset.p0.i64(ptr noundef nonnull align 8 dereferenceable(16) %5, i8 0, i64 16, i1 false)
  store i32 1, ptr %6, align 8, !tbaa !25
  %7 = getelementptr inbounds nuw i8, ptr %5, i64 152
  store i32 -1, ptr %7, align 8, !tbaa !26
  %8 = getelementptr inbounds nuw i8, ptr %5, i64 80
  %9 = getelementptr inbounds nuw i8, ptr %5, i64 104
  tail call void @llvm.memset.p0.i64(ptr noundef nonnull align 8 dereferenceable(24) %8, i8 0, i64 24, i1 false)
  store i32 -1, ptr %9, align 8, !tbaa !27
  %10 = getelementptr inbounds nuw i8, ptr %5, i64 108
  store i32 -1, ptr %10, align 4, !tbaa !28
  %11 = getelementptr inbounds nuw i8, ptr %5, i64 112
  %12 = getelementptr inbounds nuw i8, ptr %5, i64 72
  tail call void @llvm.memset.p0.i64(ptr noundef nonnull align 8 dereferenceable(32) %11, i8 0, i64 32, i1 false)
  store i64 -1, ptr %12, align 8
  %13 = getelementptr inbounds nuw i8, ptr %5, i64 64
  store ptr null, ptr %13, align 8, !tbaa !21
  %14 = tail call { ptr, ptr } @gen_subexp(ptr %0, ptr %1)
  %15 = extractvalue { ptr, ptr } %14, 0
  %.not.i.i = icmp eq ptr %15, null
  br i1 %.not.i.i, label %19, label %16

16:                                               ; preds = %4
  %17 = extractvalue { ptr, ptr } %14, 1
  store ptr %15, ptr %5, align 8, !tbaa !22
  %18 = getelementptr inbounds nuw i8, ptr %15, i64 8
  store ptr %5, ptr %18, align 8, !tbaa !34
  br label %19

19:                                               ; preds = %16, %4
  %.sroa.3.0.i = phi ptr [ %5, %4 ], [ %17, %16 ]
  %20 = tail call ptr @jv_mem_alloc(i64 noundef 160) #17
  %21 = getelementptr inbounds nuw i8, ptr %20, i64 16
  tail call void @llvm.memset.p0.i64(ptr noundef nonnull align 8 dereferenceable(16) %20, i8 0, i64 16, i1 false)
  store i32 10, ptr %21, align 8, !tbaa !25
  %22 = getelementptr inbounds nuw i8, ptr %20, i64 152
  store i32 -1, ptr %22, align 8, !tbaa !26
  %23 = getelementptr inbounds nuw i8, ptr %20, i64 80
  %24 = getelementptr inbounds nuw i8, ptr %20, i64 104
  tail call void @llvm.memset.p0.i64(ptr noundef nonnull align 8 dereferenceable(24) %23, i8 0, i64 24, i1 false)
  store i32 -1, ptr %24, align 8, !tbaa !27
  %25 = getelementptr inbounds nuw i8, ptr %20, i64 108
  store i32 -1, ptr %25, align 4, !tbaa !28
  %26 = getelementptr inbounds nuw i8, ptr %20, i64 112
  %27 = getelementptr inbounds nuw i8, ptr %20, i64 72
  tail call void @llvm.memset.p0.i64(ptr noundef nonnull align 8 dereferenceable(32) %26, i8 0, i64 32, i1 false)
  store i64 -1, ptr %27, align 8
  %28 = getelementptr inbounds nuw i8, ptr %20, i64 64
  store ptr null, ptr %28, align 8, !tbaa !21
  %.not7.i.i18 = icmp eq ptr %.sroa.3.0.i, null
  br i1 %.not7.i.i18, label %block_join.exit23, label %29

29:                                               ; preds = %19
  store ptr %20, ptr %.sroa.3.0.i, align 8, !tbaa !22
  %30 = getelementptr inbounds nuw i8, ptr %20, i64 8
  store ptr %.sroa.3.0.i, ptr %30, align 8, !tbaa !34
  br label %block_join.exit23

block_join.exit23:                                ; preds = %19, %29
  %.sroa.0.1.i20 = phi ptr [ %20, %19 ], [ %5, %29 ]
  %.not.i.i24 = icmp eq ptr %2, null
  br i1 %.not.i.i24, label %block_join.exit30, label %31

31:                                               ; preds = %block_join.exit23
  store ptr %2, ptr %20, align 8, !tbaa !22
  %32 = getelementptr inbounds nuw i8, ptr %2, i64 8
  store ptr %20, ptr %32, align 8, !tbaa !34
  br label %block_join.exit30

block_join.exit30:                                ; preds = %block_join.exit23, %31
  %.sroa.3.0.i26 = phi ptr [ %20, %block_join.exit23 ], [ %3, %31 ]
  %.fca.0.insert.i28 = insertvalue { ptr, ptr } poison, ptr %.sroa.0.1.i20, 0
  %.fca.1.insert.i29 = insertvalue { ptr, ptr } %.fca.0.insert.i28, ptr %.sroa.3.0.i26, 1
  ret { ptr, ptr } %.fca.1.insert.i29
}